; Function Attrs: nounwind uwtable
define hidden void @mi_cfree(ptr noundef %0) local_unnamed_addr #0 {
  %2 = tail call zeroext i1 @mi_is_in_heap_region(ptr noundef %0) #8
  br i1 %2, label %3, label %4

3:                                                ; preds = %1
  tail call void @mi_free(ptr noundef %0) #8
  br label %4

4:                                                ; preds = %3, %1
  ret void
}